; Function Attrs: nounwind uwtable
define ptr @l_Lean_IR_ExplicitRC_getDecl(ptr noundef %0, ptr noundef %1) local_unnamed_addr #0 {
  %3 = getelementptr inbounds nuw i8, ptr %0, i64 8
  %4 = load ptr, ptr %3, align 8, !tbaa !4
  %5 = ptrtoint ptr %4 to i64
  %6 = and i64 %5, 1
  %.not = icmp eq i64 %6, 0
  br i1 %.not, label %7, label %lean_inc.exit

7:                                                ; preds = %2
  %.val.i = load i32, ptr %4, align 4, !tbaa !8
  %8 = icmp sgt i32 %.val.i, 0
  br i1 %8, label %9, label %11, !prof !11

9:                                                ; preds = %7
  %10 = add nuw i32 %.val.i, 1
  store i32 %10, ptr %4, align 4, !tbaa !8
  br label %lean_inc.exit

11:                                               ; preds = %7
  %.not.i25 = icmp eq i32 %.val.i, 0
  br i1 %.not.i25, label %lean_inc.exit, label %12

12:                                               ; preds = %11
  tail call void @lean_inc_ref_cold(ptr noundef nonnull %4) #6
  br label %lean_inc.exit

lean_inc.exit:                                    ; preds = %12, %11, %9, %2
  %13 = getelementptr inbounds nuw i8, ptr %0, i64 16
  %14 = load ptr, ptr %13, align 8, !tbaa !4
  %15 = ptrtoint ptr %14 to i64
  %16 = and i64 %15, 1
  %.not34 = icmp eq i64 %16, 0
  br i1 %.not34, label %17, label %lean_inc.exit17

17:                                               ; preds = %lean_inc.exit
  %.val.i26 = load i32, ptr %14, align 4, !tbaa !8
  %18 = icmp sgt i32 %.val.i26, 0
  br i1 %18, label %19, label %21, !prof !11

19:                                               ; preds = %17
  %20 = add nuw i32 %.val.i26, 1
  store i32 %20, ptr %14, align 4, !tbaa !8
  br label %lean_inc.exit17

21:                                               ; preds = %17
  %.not.i27 = icmp eq i32 %.val.i26, 0
  br i1 %.not.i27, label %lean_inc.exit17, label %22

22:                                               ; preds = %21
  tail call void @lean_inc_ref_cold(ptr noundef nonnull %14) #6
  br label %lean_inc.exit17

lean_inc.exit17:                                  ; preds = %22, %21, %19, %lean_inc.exit
  %23 = ptrtoint ptr %0 to i64
  %24 = and i64 %23, 1
  %.not35 = icmp eq i64 %24, 0
  br i1 %.not35, label %25, label %lean_dec.exit

25:                                               ; preds = %lean_inc.exit17
  %26 = load i32, ptr %0, align 4, !tbaa !8
  %27 = icmp sgt i32 %26, 1
  br i1 %27, label %28, label %30, !prof !11

28:                                               ; preds = %25
  %29 = add nsw i32 %26, -1
  store i32 %29, ptr %0, align 4, !tbaa !8
  br label %lean_dec.exit

30:                                               ; preds = %25
  %.not.i23 = icmp eq i32 %26, 0
  br i1 %.not.i23, label %lean_dec.exit, label %31

31:                                               ; preds = %30
  tail call void @lean_dec_ref_cold(ptr noundef nonnull %0) #6
  br label %lean_dec.exit

lean_dec.exit:                                    ; preds = %31, %30, %28, %lean_inc.exit17
  %32 = tail call ptr @l_Lean_IR_findEnvDecl_x27(ptr noundef %4, ptr noundef %1, ptr noundef %14) #6
  br i1 %.not34, label %33, label %lean_dec.exit19

33:                                               ; preds = %lean_dec.exit
  %34 = load i32, ptr %14, align 4, !tbaa !8
  %35 = icmp sgt i32 %34, 1
  br i1 %35, label %36, label %38, !prof !11

36:                                               ; preds = %33
  %37 = add nsw i32 %34, -1
  store i32 %37, ptr %14, align 4, !tbaa !8
  br label %lean_dec.exit19

38:                                               ; preds = %33
  %.not.i21 = icmp eq i32 %34, 0
  br i1 %.not.i21, label %lean_dec.exit19, label %39

39:                                               ; preds = %38
  tail call void @lean_dec_ref_cold(ptr noundef nonnull %14) #6
  br label %lean_dec.exit19

lean_dec.exit19:                                  ; preds = %39, %38, %36, %lean_dec.exit
  %40 = ptrtoint ptr %32 to i64
  %41 = and i64 %40, 1
  %.not.i29 = icmp eq i64 %41, 0
  br i1 %.not.i29, label %45, label %42

42:                                               ; preds = %lean_dec.exit19
  %43 = lshr i64 %40, 1
  %44 = trunc i64 %43 to i32
  br label %lean_obj_tag.exit

45:                                               ; preds = %lean_dec.exit19
  %46 = getelementptr i8, ptr %32, i64 4
  %.val.i30 = load i32, ptr %46, align 4
  %47 = lshr i32 %.val.i30, 24
  br label %lean_obj_tag.exit

lean_obj_tag.exit:                                ; preds = %42, %45
  %.0.i = phi i32 [ %44, %42 ], [ %47, %45 ]
  %48 = icmp eq i32 %.0.i, 0
  br i1 %48, label %49, label %52

49:                                               ; preds = %lean_obj_tag.exit
  %50 = load ptr, ptr @l_Lean_IR_ExplicitRC_getDecl___closed__4, align 8, !tbaa !4
  %51 = tail call ptr @l_panic___at_Lean_IR_Decl_updateBody_x21___spec__1(ptr noundef %50) #6
  br label %lean_dec.exit20

52:                                               ; preds = %lean_obj_tag.exit
  %53 = getelementptr inbounds nuw i8, ptr %32, i64 8
  %54 = load ptr, ptr %53, align 8, !tbaa !4
  %55 = ptrtoint ptr %54 to i64
  %56 = and i64 %55, 1
  %.not36 = icmp eq i64 %56, 0
  br i1 %.not36, label %57, label %lean_inc.exit18

57:                                               ; preds = %52
  %.val.i31 = load i32, ptr %54, align 4, !tbaa !8
  %58 = icmp sgt i32 %.val.i31, 0
  br i1 %58, label %59, label %61, !prof !11

59:                                               ; preds = %57
  %60 = add nuw i32 %.val.i31, 1
  store i32 %60, ptr %54, align 4, !tbaa !8
  br label %lean_inc.exit18

61:                                               ; preds = %57
  %.not.i32 = icmp eq i32 %.val.i31, 0
  br i1 %.not.i32, label %lean_inc.exit18, label %62

62:                                               ; preds = %61
  tail call void @lean_inc_ref_cold(ptr noundef nonnull %54) #6
  br label %lean_inc.exit18

lean_inc.exit18:                                  ; preds = %62, %61, %59, %52
  br i1 %.not.i29, label %63, label %lean_dec.exit20

63:                                               ; preds = %lean_inc.exit18
  %64 = load i32, ptr %32, align 4, !tbaa !8
  %65 = icmp sgt i32 %64, 1
  br i1 %65, label %66, label %68, !prof !11

66:                                               ; preds = %63
  %67 = add nsw i32 %64, -1
  store i32 %67, ptr %32, align 4, !tbaa !8
  br label %lean_dec.exit20

68:                                               ; preds = %63
  %.not.i = icmp eq i32 %64, 0
  br i1 %.not.i, label %lean_dec.exit20, label %69

69:                                               ; preds = %68
  tail call void @lean_dec_ref_cold(ptr noundef nonnull %32) #6
  br label %lean_dec.exit20

lean_dec.exit20:                                  ; preds = %lean_inc.exit18, %66, %68, %69, %49
  %.0 = phi ptr [ %51, %49 ], [ %54, %69 ], [ %54, %68 ], [ %54, %66 ], [ %54, %lean_inc.exit18 ]
  ret ptr %.0
}